; Function Attrs: null_pointer_is_valid sspstrong uwtable
define hidden i32 @dssetup_dissect_struct_DsRoleUpgradeStatus(ptr noundef %0, i32 noundef %1, ptr noundef %2, ptr noundef %3, ptr noundef %4, ptr noundef %5, i32 noundef %6, i32 %7) local_unnamed_addr #0 {
  %9 = alloca i32, align 4
  %10 = alloca i32, align 4
  %11 = getelementptr inbounds nuw i8, ptr %4, i64 25
  %12 = load i8, ptr %11, align 1, !range !6, !noundef !7
  %13 = trunc nuw i8 %12 to i1
  %14 = and i32 %1, 3
  %.not = icmp eq i32 %14, 0
  %or.cond = or i1 %.not, %13
  %15 = and i32 %1, -4
  %16 = add i32 %15, 4
  %.0 = select i1 %or.cond, i32 %1, i32 %16
  %.not32 = icmp eq ptr %3, null
  br i1 %.not32, label %21, label %17

17:                                               ; preds = %8
  %18 = tail call ptr @proto_tree_add_item(ptr noundef nonnull %3, i32 noundef %6, ptr noundef %0, i32 noundef %.0, i32 noundef -1, i32 noundef 0)
  %19 = load i32, ptr @ett_dssetup_dssetup_DsRoleUpgradeStatus, align 4
  %20 = tail call ptr @proto_item_add_subtree(ptr noundef %18, i32 noundef %19)
  br label %21

21:                                               ; preds = %17, %8
  %.030 = phi ptr [ %18, %17 ], [ null, %8 ]
  %.029 = phi ptr [ %20, %17 ], [ null, %8 ]
  %22 = load i32, ptr @hf_dssetup_dssetup_DsRoleUpgradeStatus_upgrading, align 4
  call void @llvm.lifetime.start.p0(i64 4, ptr nonnull %10) #4
  store i32 0, ptr %10, align 4
  %23 = call i32 @dissect_ndr_uint32(ptr noundef %0, i32 noundef %.0, ptr noundef %2, ptr noundef %.029, ptr noundef %4, ptr noundef %5, i32 noundef %22, ptr noundef nonnull %10)
  call void @llvm.lifetime.end.p0(i64 4, ptr nonnull %10) #4
  %24 = load i32, ptr @hf_dssetup_dssetup_DsRoleUpgradeStatus_previous_role, align 4
  call void @llvm.lifetime.start.p0(i64 4, ptr nonnull %9) #4
  store i32 0, ptr %9, align 4
  %25 = call i32 @dissect_ndr_uint1632(ptr noundef %0, i32 noundef %23, ptr noundef %2, ptr noundef %.029, ptr noundef %4, ptr noundef %5, i32 noundef %24, ptr noundef nonnull %9)
  call void @llvm.lifetime.end.p0(i64 4, ptr nonnull %9) #4
  %26 = sub i32 %25, %.0
  call void @proto_item_set_len(ptr noundef %.030, i32 noundef %26)
  %27 = getelementptr inbounds nuw i8, ptr %4, i64 64
  %28 = load ptr, ptr %27, align 8
  %29 = getelementptr inbounds nuw i8, ptr %28, i64 96
  %30 = load i32, ptr %29, align 8
  %31 = and i32 %30, 1
  %.not33 = icmp eq i32 %31, 0
  br i1 %.not33, label %39, label %32

32:                                               ; preds = %21
  %33 = load i8, ptr %11, align 1, !range !6, !noundef !7
  %34 = trunc nuw i8 %33 to i1
  %35 = and i32 %25, 3
  %.not34 = icmp eq i32 %35, 0
  %or.cond35 = or i1 %.not34, %34
  br i1 %or.cond35, label %39, label %36

36:                                               ; preds = %32
  %37 = and i32 %25, -4
  %38 = add i32 %37, 4
  br label %39

39:                                               ; preds = %32, %36, %21
  %.1 = phi i32 [ %25, %32 ], [ %38, %36 ], [ %25, %21 ]
  ret i32 %.1
}